
memo:     file format elf32-i386


Disassembly of section .init:

08048404 <_init>:
 8048404:	53                   	push   %ebx
 8048405:	83 ec 08             	sub    $0x8,%esp
 8048408:	e8 13 01 00 00       	call   8048520 <__x86.get_pc_thunk.bx>
 804840d:	81 c3 bf 16 00 00    	add    $0x16bf,%ebx
 8048413:	8b 83 fc ff ff ff    	mov    -0x4(%ebx),%eax
 8048419:	85 c0                	test   %eax,%eax
 804841b:	74 05                	je     8048422 <_init+0x1e>
 804841d:	e8 7e 00 00 00       	call   80484a0 <__gmon_start__@plt>
 8048422:	83 c4 08             	add    $0x8,%esp
 8048425:	5b                   	pop    %ebx
 8048426:	c3                   	ret    

Disassembly of section .plt:

08048430 <setbuf@plt-0x10>:
 8048430:	ff 35 d0 9a 04 08    	pushl  0x8049ad0
 8048436:	ff 25 d4 9a 04 08    	jmp    *0x8049ad4
 804843c:	00 00                	add    %al,(%eax)
	...

08048440 <setbuf@plt>:
 8048440:	ff 25 d8 9a 04 08    	jmp    *0x8049ad8
 8048446:	68 00 00 00 00       	push   $0x0
 804844b:	e9 e0 ff ff ff       	jmp    8048430 <_init+0x2c>

08048450 <strcmp@plt>:
 8048450:	ff 25 dc 9a 04 08    	jmp    *0x8049adc
 8048456:	68 08 00 00 00       	push   $0x8
 804845b:	e9 d0 ff ff ff       	jmp    8048430 <_init+0x2c>

08048460 <printf@plt>:
 8048460:	ff 25 e0 9a 04 08    	jmp    *0x8049ae0
 8048466:	68 10 00 00 00       	push   $0x10
 804846b:	e9 c0 ff ff ff       	jmp    8048430 <_init+0x2c>

08048470 <fgets@plt>:
 8048470:	ff 25 e4 9a 04 08    	jmp    *0x8049ae4
 8048476:	68 18 00 00 00       	push   $0x18
 804847b:	e9 b0 ff ff ff       	jmp    8048430 <_init+0x2c>

08048480 <__stack_chk_fail@plt>:
 8048480:	ff 25 e8 9a 04 08    	jmp    *0x8049ae8
 8048486:	68 20 00 00 00       	push   $0x20
 804848b:	e9 a0 ff ff ff       	jmp    8048430 <_init+0x2c>

08048490 <puts@plt>:
 8048490:	ff 25 ec 9a 04 08    	jmp    *0x8049aec
 8048496:	68 28 00 00 00       	push   $0x28
 804849b:	e9 90 ff ff ff       	jmp    8048430 <_init+0x2c>

080484a0 <__gmon_start__@plt>:
 80484a0:	ff 25 f0 9a 04 08    	jmp    *0x8049af0
 80484a6:	68 30 00 00 00       	push   $0x30
 80484ab:	e9 80 ff ff ff       	jmp    8048430 <_init+0x2c>

080484b0 <exit@plt>:
 80484b0:	ff 25 f4 9a 04 08    	jmp    *0x8049af4
 80484b6:	68 38 00 00 00       	push   $0x38
 80484bb:	e9 70 ff ff ff       	jmp    8048430 <_init+0x2c>

080484c0 <mmap@plt>:
 80484c0:	ff 25 f8 9a 04 08    	jmp    *0x8049af8
 80484c6:	68 40 00 00 00       	push   $0x40
 80484cb:	e9 60 ff ff ff       	jmp    8048430 <_init+0x2c>

080484d0 <strchr@plt>:
 80484d0:	ff 25 fc 9a 04 08    	jmp    *0x8049afc
 80484d6:	68 48 00 00 00       	push   $0x48
 80484db:	e9 50 ff ff ff       	jmp    8048430 <_init+0x2c>

080484e0 <__libc_start_main@plt>:
 80484e0:	ff 25 00 9b 04 08    	jmp    *0x8049b00
 80484e6:	68 50 00 00 00       	push   $0x50
 80484eb:	e9 40 ff ff ff       	jmp    8048430 <_init+0x2c>

Disassembly of section .text:

080484f0 <_start>:
 80484f0:	31 ed                	xor    %ebp,%ebp
 80484f2:	5e                   	pop    %esi
 80484f3:	89 e1                	mov    %esp,%ecx
 80484f5:	83 e4 f0             	and    $0xfffffff0,%esp
 80484f8:	50                   	push   %eax
 80484f9:	54                   	push   %esp
 80484fa:	52                   	push   %edx
 80484fb:	68 30 88 04 08       	push   $0x8048830
 8048500:	68 c0 87 04 08       	push   $0x80487c0
 8048505:	51                   	push   %ecx
 8048506:	56                   	push   %esi
 8048507:	68 4a 86 04 08       	push   $0x804864a
 804850c:	e8 cf ff ff ff       	call   80484e0 <__libc_start_main@plt>
 8048511:	f4                   	hlt    
 8048512:	66 90                	xchg   %ax,%ax
 8048514:	66 90                	xchg   %ax,%ax
 8048516:	66 90                	xchg   %ax,%ax
 8048518:	66 90                	xchg   %ax,%ax
 804851a:	66 90                	xchg   %ax,%ax
 804851c:	66 90                	xchg   %ax,%ax
 804851e:	66 90                	xchg   %ax,%ax

08048520 <__x86.get_pc_thunk.bx>:
 8048520:	8b 1c 24             	mov    (%esp),%ebx
 8048523:	c3                   	ret    
 8048524:	66 90                	xchg   %ax,%ax
 8048526:	66 90                	xchg   %ax,%ax
 8048528:	66 90                	xchg   %ax,%ax
 804852a:	66 90                	xchg   %ax,%ax
 804852c:	66 90                	xchg   %ax,%ax
 804852e:	66 90                	xchg   %ax,%ax

08048530 <deregister_tm_clones>:
 8048530:	b8 13 9b 04 08       	mov    $0x8049b13,%eax
 8048535:	2d 10 9b 04 08       	sub    $0x8049b10,%eax
 804853a:	83 f8 06             	cmp    $0x6,%eax
 804853d:	77 01                	ja     8048540 <deregister_tm_clones+0x10>
 804853f:	c3                   	ret    
 8048540:	b8 00 00 00 00       	mov    $0x0,%eax
 8048545:	85 c0                	test   %eax,%eax
 8048547:	74 f6                	je     804853f <deregister_tm_clones+0xf>
 8048549:	55                   	push   %ebp
 804854a:	89 e5                	mov    %esp,%ebp
 804854c:	83 ec 18             	sub    $0x18,%esp
 804854f:	c7 04 24 10 9b 04 08 	movl   $0x8049b10,(%esp)
 8048556:	ff d0                	call   *%eax
 8048558:	c9                   	leave  
 8048559:	c3                   	ret    
 804855a:	8d b6 00 00 00 00    	lea    0x0(%esi),%esi

08048560 <register_tm_clones>:
 8048560:	b8 10 9b 04 08       	mov    $0x8049b10,%eax
 8048565:	2d 10 9b 04 08       	sub    $0x8049b10,%eax
 804856a:	c1 f8 02             	sar    $0x2,%eax
 804856d:	89 c2                	mov    %eax,%edx
 804856f:	c1 ea 1f             	shr    $0x1f,%edx
 8048572:	01 d0                	add    %edx,%eax
 8048574:	d1 f8                	sar    %eax
 8048576:	75 01                	jne    8048579 <register_tm_clones+0x19>
 8048578:	c3                   	ret    
 8048579:	ba 00 00 00 00       	mov    $0x0,%edx
 804857e:	85 d2                	test   %edx,%edx
 8048580:	74 f6                	je     8048578 <register_tm_clones+0x18>
 8048582:	55                   	push   %ebp
 8048583:	89 e5                	mov    %esp,%ebp
 8048585:	83 ec 18             	sub    $0x18,%esp
 8048588:	89 44 24 04          	mov    %eax,0x4(%esp)
 804858c:	c7 04 24 10 9b 04 08 	movl   $0x8049b10,(%esp)
 8048593:	ff d2                	call   *%edx
 8048595:	c9                   	leave  
 8048596:	c3                   	ret    
 8048597:	89 f6                	mov    %esi,%esi
 8048599:	8d bc 27 00 00 00 00 	lea    0x0(%edi,%eiz,1),%edi

080485a0 <__do_global_dtors_aux>:
 80485a0:	80 3d 44 9b 04 08 00 	cmpb   $0x0,0x8049b44
 80485a7:	75 13                	jne    80485bc <__do_global_dtors_aux+0x1c>
 80485a9:	55                   	push   %ebp
 80485aa:	89 e5                	mov    %esp,%ebp
 80485ac:	83 ec 08             	sub    $0x8,%esp
 80485af:	e8 7c ff ff ff       	call   8048530 <deregister_tm_clones>
 80485b4:	c6 05 44 9b 04 08 01 	movb   $0x1,0x8049b44
 80485bb:	c9                   	leave  
 80485bc:	f3 c3                	repz ret 
 80485be:	66 90                	xchg   %ax,%ax

080485c0 <frame_dummy>:
 80485c0:	a1 dc 99 04 08       	mov    0x80499dc,%eax
 80485c5:	85 c0                	test   %eax,%eax
 80485c7:	74 1f                	je     80485e8 <frame_dummy+0x28>
 80485c9:	b8 00 00 00 00       	mov    $0x0,%eax
 80485ce:	85 c0                	test   %eax,%eax
 80485d0:	74 16                	je     80485e8 <frame_dummy+0x28>
 80485d2:	55                   	push   %ebp
 80485d3:	89 e5                	mov    %esp,%ebp
 80485d5:	83 ec 18             	sub    $0x18,%esp
 80485d8:	c7 04 24 dc 99 04 08 	movl   $0x80499dc,(%esp)
 80485df:	ff d0                	call   *%eax
 80485e1:	c9                   	leave  
 80485e2:	e9 79 ff ff ff       	jmp    8048560 <register_tm_clones>
 80485e7:	90                   	nop
 80485e8:	e9 73 ff ff ff       	jmp    8048560 <register_tm_clones>

080485ed <init>:
 80485ed:	55                   	push   %ebp
 80485ee:	89 e5                	mov    %esp,%ebp
 80485f0:	83 ec 38             	sub    $0x38,%esp
 80485f3:	65 a1 14 00 00 00    	mov    %gs:0x14,%eax
 80485f9:	89 45 f4             	mov    %eax,-0xc(%ebp)
 80485fc:	31 c0                	xor    %eax,%eax
 80485fe:	c7 44 24 14 00 00 00 	movl   $0x0,0x14(%esp)
 8048605:	00 
 8048606:	c7 44 24 10 ff ff ff 	movl   $0xffffffff,0x10(%esp)
 804860d:	ff 
 804860e:	c7 44 24 0c 22 00 00 	movl   $0x22,0xc(%esp)
 8048615:	00 
 8048616:	c7 44 24 08 07 00 00 	movl   $0x7,0x8(%esp)
 804861d:	00 
 804861e:	c7 44 24 04 00 10 00 	movl   $0x1000,0x4(%esp)
 8048625:	00 
 8048626:	c7 04 24 00 c0 04 08 	movl   $0x804c000,(%esp)
 804862d:	e8 8e fe ff ff       	call   80484c0 <mmap@plt>
 8048632:	a3 48 9b 04 08       	mov    %eax,0x8049b48
 8048637:	8b 45 f4             	mov    -0xc(%ebp),%eax
 804863a:	65 33 05 14 00 00 00 	xor    %gs:0x14,%eax
 8048641:	74 05                	je     8048648 <init+0x5b>
 8048643:	e8 38 fe ff ff       	call   8048480 <__stack_chk_fail@plt>
 8048648:	c9                   	leave  
 8048649:	c3                   	ret    

0804864a <main>:
 804864a:	55                   	push   %ebp
 804864b:	89 e5                	mov    %esp,%ebp
 804864d:	83 e4 f0             	and    $0xfffffff0,%esp
 8048650:	81 ec 50 01 00 00    	sub    $0x150,%esp
 8048656:	65 a1 14 00 00 00    	mov    %gs:0x14,%eax
 804865c:	89 84 24 4c 01 00 00 	mov    %eax,0x14c(%esp)
 8048663:	31 c0                	xor    %eax,%eax
 8048665:	8d 44 24 22          	lea    0x22(%esp),%eax
 8048669:	83 c0 20             	add    $0x20,%eax
 804866c:	89 44 24 14          	mov    %eax,0x14(%esp)
 8048670:	8b 44 24 14          	mov    0x14(%esp),%eax
 8048674:	83 c0 04             	add    $0x4,%eax
 8048677:	89 44 24 18          	mov    %eax,0x18(%esp)
 804867b:	a1 20 9b 04 08       	mov    0x8049b20,%eax
 8048680:	c7 44 24 04 00 00 00 	movl   $0x0,0x4(%esp)
 8048687:	00 
 8048688:	89 04 24             	mov    %eax,(%esp)
 804868b:	e8 b0 fd ff ff       	call   8048440 <setbuf@plt>
 8048690:	a1 40 9b 04 08       	mov    0x8049b40,%eax
 8048695:	c7 44 24 04 00 00 00 	movl   $0x0,0x4(%esp)
 804869c:	00 
 804869d:	89 04 24             	mov    %eax,(%esp)
 80486a0:	e8 9b fd ff ff       	call   8048440 <setbuf@plt>
 80486a5:	8b 44 24 18          	mov    0x18(%esp),%eax
 80486a9:	8d 94 24 cc 00 00 00 	lea    0xcc(%esp),%edx
 80486b0:	89 10                	mov    %edx,(%eax)
 80486b2:	8b 44 24 14          	mov    0x14(%esp),%eax
 80486b6:	8d 54 24 4c          	lea    0x4c(%esp),%edx
 80486ba:	89 10                	mov    %edx,(%eax)
 80486bc:	c7 04 24 64 88 04 08 	movl   $0x8048864,(%esp)
 80486c3:	e8 98 fd ff ff       	call   8048460 <printf@plt>
 80486c8:	a1 20 9b 04 08       	mov    0x8049b20,%eax
 80486cd:	89 44 24 08          	mov    %eax,0x8(%esp)
 80486d1:	c7 44 24 04 2a 00 00 	movl   $0x2a,0x4(%esp)
 80486d8:	00 
 80486d9:	8d 44 24 22          	lea    0x22(%esp),%eax
 80486dd:	89 04 24             	mov    %eax,(%esp)
 80486e0:	e8 8b fd ff ff       	call   8048470 <fgets@plt>
 80486e5:	c7 04 24 7c 88 04 08 	movl   $0x804887c,(%esp)
 80486ec:	e8 6f fd ff ff       	call   8048460 <printf@plt>
 80486f1:	8b 15 20 9b 04 08    	mov    0x8049b20,%edx
 80486f7:	8b 44 24 14          	mov    0x14(%esp),%eax
 80486fb:	8b 00                	mov    (%eax),%eax
 80486fd:	89 54 24 08          	mov    %edx,0x8(%esp)
 8048701:	c7 44 24 04 80 00 00 	movl   $0x80,0x4(%esp)
 8048708:	00 
 8048709:	89 04 24             	mov    %eax,(%esp)
 804870c:	e8 5f fd ff ff       	call   8048470 <fgets@plt>
 8048711:	8b 44 24 14          	mov    0x14(%esp),%eax
 8048715:	8b 00                	mov    (%eax),%eax
 8048717:	c7 44 24 04 0a 00 00 	movl   $0xa,0x4(%esp)
 804871e:	00 
 804871f:	89 04 24             	mov    %eax,(%esp)
 8048722:	e8 a9 fd ff ff       	call   80484d0 <strchr@plt>
 8048727:	89 44 24 1c          	mov    %eax,0x1c(%esp)
 804872b:	83 7c 24 1c 00       	cmpl   $0x0,0x1c(%esp)
 8048730:	74 07                	je     8048739 <main+0xef>
 8048732:	8b 44 24 1c          	mov    0x1c(%esp),%eax
 8048736:	c6 00 00             	movb   $0x0,(%eax)
 8048739:	8b 15 0c 9b 04 08    	mov    0x8049b0c,%edx
 804873f:	8b 44 24 14          	mov    0x14(%esp),%eax
 8048743:	8b 00                	mov    (%eax),%eax
 8048745:	89 54 24 04          	mov    %edx,0x4(%esp)
 8048749:	89 04 24             	mov    %eax,(%esp)
 804874c:	e8 ff fc ff ff       	call   8048450 <strcmp@plt>
 8048751:	85 c0                	test   %eax,%eax
 8048753:	74 18                	je     804876d <main+0x123>
 8048755:	c7 04 24 98 88 04 08 	movl   $0x8048898,(%esp)
 804875c:	e8 2f fd ff ff       	call   8048490 <puts@plt>
 8048761:	c7 04 24 ff ff ff ff 	movl   $0xffffffff,(%esp)
 8048768:	e8 43 fd ff ff       	call   80484b0 <exit@plt>
 804876d:	8d 44 24 22          	lea    0x22(%esp),%eax
 8048771:	89 44 24 04          	mov    %eax,0x4(%esp)
 8048775:	c7 04 24 ac 88 04 08 	movl   $0x80488ac,(%esp)
 804877c:	e8 df fc ff ff       	call   8048460 <printf@plt>
 8048781:	8b 15 20 9b 04 08    	mov    0x8049b20,%edx
 8048787:	8b 44 24 18          	mov    0x18(%esp),%eax
 804878b:	8b 00                	mov    (%eax),%eax
 804878d:	89 54 24 08          	mov    %edx,0x8(%esp)
 8048791:	c7 44 24 04 80 00 00 	movl   $0x80,0x4(%esp)
 8048798:	00 
 8048799:	89 04 24             	mov    %eax,(%esp)
 804879c:	e8 cf fc ff ff       	call   8048470 <fgets@plt>
 80487a1:	b8 00 00 00 00       	mov    $0x0,%eax
 80487a6:	8b 8c 24 4c 01 00 00 	mov    0x14c(%esp),%ecx
 80487ad:	65 33 0d 14 00 00 00 	xor    %gs:0x14,%ecx
 80487b4:	74 05                	je     80487bb <main+0x171>
 80487b6:	e8 c5 fc ff ff       	call   8048480 <__stack_chk_fail@plt>
 80487bb:	c9                   	leave  
 80487bc:	c3                   	ret    
 80487bd:	66 90                	xchg   %ax,%ax
 80487bf:	90                   	nop

080487c0 <__libc_csu_init>:
 80487c0:	55                   	push   %ebp
 80487c1:	57                   	push   %edi
 80487c2:	31 ff                	xor    %edi,%edi
 80487c4:	56                   	push   %esi
 80487c5:	53                   	push   %ebx
 80487c6:	e8 55 fd ff ff       	call   8048520 <__x86.get_pc_thunk.bx>
 80487cb:	81 c3 01 13 00 00    	add    $0x1301,%ebx
 80487d1:	83 ec 1c             	sub    $0x1c,%esp
 80487d4:	8b 6c 24 30          	mov    0x30(%esp),%ebp
 80487d8:	8d b3 0c ff ff ff    	lea    -0xf4(%ebx),%esi
 80487de:	e8 21 fc ff ff       	call   8048404 <_init>
 80487e3:	8d 83 04 ff ff ff    	lea    -0xfc(%ebx),%eax
 80487e9:	29 c6                	sub    %eax,%esi
 80487eb:	c1 fe 02             	sar    $0x2,%esi
 80487ee:	85 f6                	test   %esi,%esi
 80487f0:	74 27                	je     8048819 <__libc_csu_init+0x59>
 80487f2:	8d b6 00 00 00 00    	lea    0x0(%esi),%esi
 80487f8:	8b 44 24 38          	mov    0x38(%esp),%eax
 80487fc:	89 2c 24             	mov    %ebp,(%esp)
 80487ff:	89 44 24 08          	mov    %eax,0x8(%esp)
 8048803:	8b 44 24 34          	mov    0x34(%esp),%eax
 8048807:	89 44 24 04          	mov    %eax,0x4(%esp)
 804880b:	ff 94 bb 04 ff ff ff 	call   *-0xfc(%ebx,%edi,4)
 8048812:	83 c7 01             	add    $0x1,%edi
 8048815:	39 f7                	cmp    %esi,%edi
 8048817:	75 df                	jne    80487f8 <__libc_csu_init+0x38>
 8048819:	83 c4 1c             	add    $0x1c,%esp
 804881c:	5b                   	pop    %ebx
 804881d:	5e                   	pop    %esi
 804881e:	5f                   	pop    %edi
 804881f:	5d                   	pop    %ebp
 8048820:	c3                   	ret    
 8048821:	eb 0d                	jmp    8048830 <__libc_csu_fini>
 8048823:	90                   	nop
 8048824:	90                   	nop
 8048825:	90                   	nop
 8048826:	90                   	nop
 8048827:	90                   	nop
 8048828:	90                   	nop
 8048829:	90                   	nop
 804882a:	90                   	nop
 804882b:	90                   	nop
 804882c:	90                   	nop
 804882d:	90                   	nop
 804882e:	90                   	nop
 804882f:	90                   	nop

08048830 <__libc_csu_fini>:
 8048830:	f3 c3                	repz ret 

Disassembly of section .fini:

08048834 <_fini>:
 8048834:	53                   	push   %ebx
 8048835:	83 ec 08             	sub    $0x8,%esp
 8048838:	e8 e3 fc ff ff       	call   8048520 <__x86.get_pc_thunk.bx>
 804883d:	81 c3 8f 12 00 00    	add    $0x128f,%ebx
 8048843:	83 c4 08             	add    $0x8,%esp
 8048846:	5b                   	pop    %ebx
 8048847:	c3                   	ret    
